target datalayout = "e-m:e-p270:32:32-p271:32:32-p272:64:64-i64:64-i128:128-f80:128-n8:16:32:64-S128"
target triple = "x86_64-pc-linux-gnu"

%struct.expert_field = type { i32, i32 }
%struct.MessageHeader = type { [4 x i8], %struct.Version, i8, i8, i32, i32, i32, ptr }
%struct.Version = type { i8, i8 }

@hf_GIAS_OrderMgr_validate_order_properties_loop = internal global i32 0, align 4
@hf_GIAS_ValidationResults_valid = internal global i32 0, align 4
@hf_GIAS_ValidationResults_warning = internal global i32 0, align 4
@hf_GIAS_ValidationResults_details = internal global i32 0, align 4
@hf_UCO_NameValue_aname = internal global i32 0, align 4
@ei_gias_unknown_giop_msg = internal global %struct.expert_field zeroinitializer, align 4
@ei_gias_unknown_exception = internal global %struct.expert_field zeroinitializer, align 4
@ett_giop_struct = internal global i32 0, align 4
@ett_giop_sequence = internal global i32 0, align 4
@boundary = internal global i32 12, align 4
@.str.826 = private unnamed_addr constant [21 x i8] c"Unknown exception %d\00", align 1
@.str.827 = private unnamed_addr constant [24 x i8] c"Unknown GIOP message %d\00", align 1
@.str.855 = private unnamed_addr constant [21 x i8] c"struct UCO_NameValue\00", align 1
@.str.935 = private unnamed_addr constant [26 x i8] c"struct GIAS_OrderContents\00", align 1
@.str.950 = private unnamed_addr constant [49 x i8] c"sequence GIAS_OrderMgr_validate_order_properties\00", align 1
@.str.951 = private unnamed_addr constant [30 x i8] c"struct GIAS_ValidationResults\00", align 1

; Function Attrs: null_pointer_is_valid sspstrong uwtable
define internal void @decode_GIAS_ValidationResults_st(ptr noundef %0, ptr noundef %1, ptr noundef %2, ptr noundef %3, ptr noundef %4, ptr noundef %5, ptr noundef %6, i1 noundef zeroext %7) #0 {
  %9 = alloca ptr, align 8
  %10 = alloca ptr, align 8
  %11 = alloca ptr, align 8
  %12 = alloca ptr, align 8
  %13 = alloca ptr, align 8
  %14 = alloca ptr, align 8
  %15 = alloca ptr, align 8
  %16 = alloca i8, align 1
  store ptr %0, ptr %9, align 8
  store ptr %1, ptr %10, align 8
  store ptr %2, ptr %11, align 8
  store ptr %3, ptr %12, align 8
  store ptr %4, ptr %13, align 8
  store ptr %5, ptr %14, align 8
  store ptr %6, ptr %15, align 8
  %17 = zext i1 %7 to i8
  store i8 %17, ptr %16, align 1
  %18 = load ptr, ptr %11, align 8
  %19 = load i32, ptr @hf_GIAS_ValidationResults_valid, align 4
  %20 = load ptr, ptr %9, align 8
  %21 = load ptr, ptr %13, align 8
  %22 = load i32, ptr %21, align 4
  %23 = sub i32 %22, 1
  %24 = load ptr, ptr %9, align 8
  %25 = load ptr, ptr %13, align 8
  %26 = call zeroext i1 @get_CDR_boolean(ptr noundef %24, ptr noundef %25)
  %27 = zext i1 %26 to i64
  %28 = call ptr @proto_tree_add_boolean(ptr noundef %18, i32 noundef %19, ptr noundef %20, i32 noundef %23, i32 noundef 1, i64 noundef %27)
  %29 = load ptr, ptr %11, align 8
  %30 = load i32, ptr @hf_GIAS_ValidationResults_warning, align 4
  %31 = load ptr, ptr %9, align 8
  %32 = load ptr, ptr %13, align 8
  %33 = load i32, ptr %32, align 4
  %34 = sub i32 %33, 1
  %35 = load ptr, ptr %9, align 8
  %36 = load ptr, ptr %13, align 8
  %37 = call zeroext i1 @get_CDR_boolean(ptr noundef %35, ptr noundef %36)
  %38 = zext i1 %37 to i64
  %39 = call ptr @proto_tree_add_boolean(ptr noundef %29, i32 noundef %30, ptr noundef %31, i32 noundef %34, i32 noundef 1, i64 noundef %38)
  %40 = load ptr, ptr %11, align 8
  %41 = load ptr, ptr %9, align 8
  %42 = load ptr, ptr %13, align 8
  %43 = load i8, ptr %16, align 1, !range !6, !noundef !7
  %44 = trunc i8 %43 to i1
  %45 = load i32, ptr @boundary, align 4
  %46 = load i32, ptr @hf_GIAS_ValidationResults_details, align 4
  call void @giop_add_CDR_string(ptr noundef %40, ptr noundef %41, ptr noundef %42, i1 noundef zeroext %44, i32 noundef %45, i32 noundef %46)
  ret void
}

; Function Attrs: null_pointer_is_valid sspstrong uwtable
define internal void @decode_UCO_NameValue_st(ptr noundef %0, ptr noundef %1, ptr noundef %2, ptr noundef %3, ptr noundef %4, ptr noundef %5, ptr noundef %6, i1 noundef zeroext %7) #0 {
  %9 = alloca ptr, align 8
  %10 = alloca ptr, align 8
  %11 = alloca ptr, align 8
  %12 = alloca ptr, align 8
  %13 = alloca ptr, align 8
  %14 = alloca ptr, align 8
  %15 = alloca ptr, align 8
  %16 = alloca i8, align 1
  store ptr %0, ptr %9, align 8
  store ptr %1, ptr %10, align 8
  store ptr %2, ptr %11, align 8
  store ptr %3, ptr %12, align 8
  store ptr %4, ptr %13, align 8
  store ptr %5, ptr %14, align 8
  store ptr %6, ptr %15, align 8
  %17 = zext i1 %7 to i8
  store i8 %17, ptr %16, align 1
  %18 = load ptr, ptr %11, align 8
  %19 = load ptr, ptr %9, align 8
  %20 = load ptr, ptr %13, align 8
  %21 = load i8, ptr %16, align 1, !range !6, !noundef !7
  %22 = trunc i8 %21 to i1
  %23 = load i32, ptr @boundary, align 4
  %24 = load i32, ptr @hf_UCO_NameValue_aname, align 4
  call void @giop_add_CDR_string(ptr noundef %18, ptr noundef %19, ptr noundef %20, i1 noundef zeroext %22, i32 noundef %23, i32 noundef %24)
  %25 = load ptr, ptr %9, align 8
  %26 = load ptr, ptr %10, align 8
  %27 = load ptr, ptr %11, align 8
  %28 = load ptr, ptr %12, align 8
  %29 = load ptr, ptr %13, align 8
  %30 = load i8, ptr %16, align 1, !range !6, !noundef !7
  %31 = trunc i8 %30 to i1
  %32 = load i32, ptr @boundary, align 4
  %33 = load ptr, ptr %14, align 8
  call void @get_CDR_any(ptr noundef %25, ptr noundef %26, ptr noundef %27, ptr noundef %28, ptr noundef %29, i1 noundef zeroext %31, i32 noundef %32, ptr noundef %33)
  ret void
}

; Function Attrs: null_pointer_is_valid sspstrong uwtable
define internal void @decode_GIAS_OrderMgr_validate_order(ptr noundef %0, ptr noundef %1, ptr noundef %2, ptr noundef %3, ptr noundef %4, ptr noundef %5, ptr noundef %6, i1 noundef zeroext %7) #0 {
  %9 = alloca ptr, align 8
  %10 = alloca ptr, align 8
  %11 = alloca ptr, align 8
  %12 = alloca ptr, align 8
  %13 = alloca ptr, align 8
  %14 = alloca ptr, align 8
  %15 = alloca ptr, align 8
  %16 = alloca i8, align 1
  %17 = alloca i32, align 4
  %18 = alloca i32, align 4
  %19 = alloca ptr, align 8
  %20 = alloca ptr, align 8
  %21 = alloca ptr, align 8
  %22 = alloca ptr, align 8
  store ptr %0, ptr %9, align 8
  store ptr %1, ptr %10, align 8
  store ptr %2, ptr %11, align 8
  store ptr %3, ptr %12, align 8
  store ptr %4, ptr %13, align 8
  store ptr %5, ptr %14, align 8
  store ptr %6, ptr %15, align 8
  %23 = zext i1 %7 to i8
  store i8 %23, ptr %16, align 1
  call void @llvm.lifetime.start.p0(i64 4, ptr %17) #6
  call void @llvm.lifetime.start.p0(i64 4, ptr %18) #6
  %24 = load ptr, ptr %14, align 8
  %25 = getelementptr inbounds nuw %struct.MessageHeader, ptr %24, i32 0, i32 3
  %26 = load i8, ptr %25, align 1
  %27 = zext i8 %26 to i32
  switch i32 %27, label %118 [
    i32 0, label %28
    i32 1, label %90
  ]

28:                                               ; preds = %8
  call void @llvm.lifetime.start.p0(i64 8, ptr %19) #6
  %29 = load ptr, ptr %11, align 8
  %30 = load ptr, ptr %9, align 8
  %31 = load ptr, ptr %13, align 8
  %32 = load i32, ptr %31, align 4
  %33 = load i32, ptr @ett_giop_struct, align 4
  %34 = call ptr @proto_tree_add_subtree(ptr noundef %29, ptr noundef %30, i32 noundef %32, i32 noundef -1, i32 noundef %33, ptr noundef null, ptr noundef @.str.935)
  store ptr %34, ptr %19, align 8
  %35 = load ptr, ptr %9, align 8
  %36 = load ptr, ptr %10, align 8
  %37 = load ptr, ptr %19, align 8
  %38 = load ptr, ptr %12, align 8
  %39 = load ptr, ptr %13, align 8
  %40 = load ptr, ptr %14, align 8
  %41 = load ptr, ptr %15, align 8
  %42 = load i8, ptr %16, align 1, !range !6, !noundef !7
  %43 = trunc i8 %42 to i1
  call void @decode_GIAS_OrderContents_st(ptr noundef %35, ptr noundef %36, ptr noundef %37, ptr noundef %38, ptr noundef %39, ptr noundef %40, ptr noundef %41, i1 noundef zeroext %43)
  call void @llvm.lifetime.end.p0(i64 8, ptr %19) #6
  %44 = load ptr, ptr %9, align 8
  %45 = load ptr, ptr %13, align 8
  %46 = load i8, ptr %16, align 1, !range !6, !noundef !7
  %47 = trunc i8 %46 to i1
  %48 = load i32, ptr @boundary, align 4
  %49 = call i32 @get_CDR_ulong(ptr noundef %44, ptr noundef %45, i1 noundef zeroext %47, i32 noundef %48)
  store i32 %49, ptr %17, align 4
  %50 = load ptr, ptr %11, align 8
  %51 = load i32, ptr @hf_GIAS_OrderMgr_validate_order_properties_loop, align 4
  %52 = load ptr, ptr %9, align 8
  %53 = load ptr, ptr %13, align 8
  %54 = load i32, ptr %53, align 4
  %55 = sub i32 %54, 4
  %56 = load i32, ptr %17, align 4
  %57 = call ptr @proto_tree_add_uint(ptr noundef %50, i32 noundef %51, ptr noundef %52, i32 noundef %55, i32 noundef 4, i32 noundef %56)
  call void @llvm.lifetime.start.p0(i64 8, ptr %20) #6
  %58 = load ptr, ptr %11, align 8
  store ptr %58, ptr %20, align 8
  %59 = load ptr, ptr %11, align 8
  %60 = load ptr, ptr %9, align 8
  %61 = load ptr, ptr %13, align 8
  %62 = load i32, ptr %61, align 4
  %63 = load i32, ptr @ett_giop_sequence, align 4
  %64 = call ptr @proto_tree_add_subtree(ptr noundef %59, ptr noundef %60, i32 noundef %62, i32 noundef -1, i32 noundef %63, ptr noundef null, ptr noundef @.str.950)
  store ptr %64, ptr %11, align 8
  store i32 0, ptr %18, align 4
  br label %65

65:                                               ; preds = %85, %28
  %66 = load i32, ptr %18, align 4
  %67 = load i32, ptr %17, align 4
  %68 = icmp ult i32 %66, %67
  br i1 %68, label %69, label %88

69:                                               ; preds = %65
  call void @llvm.lifetime.start.p0(i64 8, ptr %21) #6
  %70 = load ptr, ptr %11, align 8
  %71 = load ptr, ptr %9, align 8
  %72 = load ptr, ptr %13, align 8
  %73 = load i32, ptr %72, align 4
  %74 = load i32, ptr @ett_giop_struct, align 4
  %75 = call ptr @proto_tree_add_subtree(ptr noundef %70, ptr noundef %71, i32 noundef %73, i32 noundef -1, i32 noundef %74, ptr noundef null, ptr noundef @.str.855)
  store ptr %75, ptr %21, align 8
  %76 = load ptr, ptr %9, align 8
  %77 = load ptr, ptr %10, align 8
  %78 = load ptr, ptr %21, align 8
  %79 = load ptr, ptr %12, align 8
  %80 = load ptr, ptr %13, align 8
  %81 = load ptr, ptr %14, align 8
  %82 = load ptr, ptr %15, align 8
  %83 = load i8, ptr %16, align 1, !range !6, !noundef !7
  %84 = trunc i8 %83 to i1
  call void @decode_UCO_NameValue_st(ptr noundef %76, ptr noundef %77, ptr noundef %78, ptr noundef %79, ptr noundef %80, ptr noundef %81, ptr noundef %82, i1 noundef zeroext %84)
  call void @llvm.lifetime.end.p0(i64 8, ptr %21) #6
  br label %85

85:                                               ; preds = %69
  %86 = load i32, ptr %18, align 4
  %87 = add i32 %86, 1
  store i32 %87, ptr %18, align 4
  br label %65, !llvm.loop !61

88:                                               ; preds = %65
  %89 = load ptr, ptr %20, align 8
  store ptr %89, ptr %11, align 8
  call void @llvm.lifetime.end.p0(i64 8, ptr %20) #6
  br label %126

90:                                               ; preds = %8
  %91 = load ptr, ptr %14, align 8
  %92 = getelementptr inbounds nuw %struct.MessageHeader, ptr %91, i32 0, i32 6
  %93 = load i32, ptr %92, align 8
  switch i32 %93, label %110 [
    i32 0, label %94
    i32 1, label %117
  ]

94:                                               ; preds = %90
  call void @llvm.lifetime.start.p0(i64 8, ptr %22) #6
  %95 = load ptr, ptr %11, align 8
  %96 = load ptr, ptr %9, align 8
  %97 = load ptr, ptr %13, align 8
  %98 = load i32, ptr %97, align 4
  %99 = load i32, ptr @ett_giop_struct, align 4
  %100 = call ptr @proto_tree_add_subtree(ptr noundef %95, ptr noundef %96, i32 noundef %98, i32 noundef -1, i32 noundef %99, ptr noundef null, ptr noundef @.str.951)
  store ptr %100, ptr %22, align 8
  %101 = load ptr, ptr %9, align 8
  %102 = load ptr, ptr %10, align 8
  %103 = load ptr, ptr %22, align 8
  %104 = load ptr, ptr %12, align 8
  %105 = load ptr, ptr %13, align 8
  %106 = load ptr, ptr %14, align 8
  %107 = load ptr, ptr %15, align 8
  %108 = load i8, ptr %16, align 1, !range !6, !noundef !7
  %109 = trunc i8 %108 to i1
  call void @decode_GIAS_ValidationResults_st(ptr noundef %101, ptr noundef %102, ptr noundef %103, ptr noundef %104, ptr noundef %105, ptr noundef %106, ptr noundef %107, i1 noundef zeroext %109)
  call void @llvm.lifetime.end.p0(i64 8, ptr %22) #6
  br label %117

110:                                              ; preds = %90
  %111 = load ptr, ptr %10, align 8
  %112 = load ptr, ptr %12, align 8
  %113 = load ptr, ptr %14, align 8
  %114 = getelementptr inbounds nuw %struct.MessageHeader, ptr %113, i32 0, i32 6
  %115 = load i32, ptr %114, align 8
  %116 = call ptr (ptr, ptr, ptr, ptr, ...) @expert_add_info_format(ptr noundef %111, ptr noundef %112, ptr noundef @ei_gias_unknown_exception, ptr noundef @.str.826, i32 noundef %115)
  br label %117

117:                                              ; preds = %110, %90, %94
  br label %126

118:                                              ; preds = %8
  %119 = load ptr, ptr %10, align 8
  %120 = load ptr, ptr %12, align 8
  %121 = load ptr, ptr %14, align 8
  %122 = getelementptr inbounds nuw %struct.MessageHeader, ptr %121, i32 0, i32 3
  %123 = load i8, ptr %122, align 1
  %124 = zext i8 %123 to i32
  %125 = call ptr (ptr, ptr, ptr, ptr, ...) @expert_add_info_format(ptr noundef %119, ptr noundef %120, ptr noundef @ei_gias_unknown_giop_msg, ptr noundef @.str.827, i32 noundef %124)
  br label %126

126:                                              ; preds = %118, %117, %88
  call void @llvm.lifetime.end.p0(i64 4, ptr %18) #6
  call void @llvm.lifetime.end.p0(i64 4, ptr %17) #6
  ret void
}