; Function Attrs: null_pointer_is_valid sspstrong uwtable
define internal fastcc void @decode_GIAS_OrderMgr_validate_order(ptr noundef %0, ptr noundef %1, ptr noundef %2, ptr noundef %3, ptr noundef %4, ptr noundef %5, i1 noundef zeroext %6) unnamed_addr #0 {
  %8 = getelementptr inbounds nuw i8, ptr %5, i64 7
  %9 = load i8, ptr %8, align 1
  switch i8 %9, label %49 [
    i8 0, label %10
    i8 1, label %27
  ]

10:                                               ; preds = %7
  %11 = load i32, ptr %4, align 4
  %12 = load i32, ptr @ett_giop_struct, align 4
  %13 = tail call ptr @proto_tree_add_subtree(ptr noundef %2, ptr noundef %0, i32 noundef %11, i32 noundef -1, i32 noundef %12, ptr noundef null, ptr noundef nonnull @.str.935)
  tail call fastcc void @decode_GIAS_OrderContents_st(ptr noundef %0, ptr noundef %1, ptr noundef %13, ptr noundef %3, ptr noundef %4, ptr noundef %5, i1 noundef zeroext %6)
  %14 = tail call i32 @get_CDR_ulong(ptr noundef %0, ptr noundef %4, i1 noundef zeroext %6, i32 noundef 12)
  %15 = load i32, ptr @hf_GIAS_OrderMgr_validate_order_properties_loop, align 4
  %16 = load i32, ptr %4, align 4
  %17 = add i32 %16, -4
  %18 = tail call ptr @proto_tree_add_uint(ptr noundef %2, i32 noundef %15, ptr noundef %0, i32 noundef %17, i32 noundef 4, i32 noundef %14)
  %19 = load i32, ptr %4, align 4
  %20 = load i32, ptr @ett_giop_sequence, align 4
  %21 = tail call ptr @proto_tree_add_subtree(ptr noundef %2, ptr noundef %0, i32 noundef %19, i32 noundef -1, i32 noundef %20, ptr noundef null, ptr noundef nonnull @.str.950)
  %.not = icmp eq i32 %14, 0
  br i1 %.not, label %.loopexit, label %.lr.ph

.lr.ph:                                           ; preds = %10, %.lr.ph
  %.01 = phi i32 [ %26, %.lr.ph ], [ 0, %10 ]
  %22 = load i32, ptr %4, align 4
  %23 = load i32, ptr @ett_giop_struct, align 4
  %24 = tail call ptr @proto_tree_add_subtree(ptr noundef %21, ptr noundef %0, i32 noundef %22, i32 noundef -1, i32 noundef %23, ptr noundef null, ptr noundef nonnull @.str.855)
  %25 = load i32, ptr @hf_UCO_NameValue_aname, align 4
  tail call void @giop_add_CDR_string(ptr noundef %24, ptr noundef %0, ptr noundef %4, i1 noundef zeroext %6, i32 noundef 12, i32 noundef %25)
  tail call void @get_CDR_any(ptr noundef %0, ptr noundef %1, ptr noundef %24, ptr noundef %3, ptr noundef %4, i1 noundef zeroext %6, i32 noundef 12, ptr noundef %5)
  %26 = add nuw i32 %.01, 1
  %exitcond.not = icmp eq i32 %26, %14
  br i1 %exitcond.not, label %.loopexit, label %.lr.ph, !llvm.loop !65

27:                                               ; preds = %7
  %28 = getelementptr inbounds nuw i8, ptr %5, i64 16
  %29 = load i32, ptr %28, align 8
  switch i32 %29, label %47 [
    i32 0, label %30
    i32 1, label %.loopexit
  ]

30:                                               ; preds = %27
  %31 = load i32, ptr %4, align 4
  %32 = load i32, ptr @ett_giop_struct, align 4
  %33 = tail call ptr @proto_tree_add_subtree(ptr noundef %2, ptr noundef %0, i32 noundef %31, i32 noundef -1, i32 noundef %32, ptr noundef null, ptr noundef nonnull @.str.951)
  %34 = load i32, ptr @hf_GIAS_ValidationResults_valid, align 4
  %35 = load i32, ptr %4, align 4
  %36 = add i32 %35, -1
  %37 = tail call zeroext i1 @get_CDR_boolean(ptr noundef %0, ptr noundef %4)
  %38 = zext i1 %37 to i64
  %39 = tail call ptr @proto_tree_add_boolean(ptr noundef %33, i32 noundef %34, ptr noundef %0, i32 noundef %36, i32 noundef 1, i64 noundef %38)
  %40 = load i32, ptr @hf_GIAS_ValidationResults_warning, align 4
  %41 = load i32, ptr %4, align 4
  %42 = add i32 %41, -1
  %43 = tail call zeroext i1 @get_CDR_boolean(ptr noundef %0, ptr noundef %4)
  %44 = zext i1 %43 to i64
  %45 = tail call ptr @proto_tree_add_boolean(ptr noundef %33, i32 noundef %40, ptr noundef %0, i32 noundef %42, i32 noundef 1, i64 noundef %44)
  %46 = load i32, ptr @hf_GIAS_ValidationResults_details, align 4
  tail call void @giop_add_CDR_string(ptr noundef %33, ptr noundef %0, ptr noundef %4, i1 noundef zeroext %6, i32 noundef 12, i32 noundef %46)
  br label %.loopexit

47:                                               ; preds = %27
  %48 = tail call ptr (ptr, ptr, ptr, ptr, ...) @expert_add_info_format(ptr noundef %1, ptr noundef %3, ptr noundef nonnull @ei_gias_unknown_exception, ptr noundef nonnull @.str.826, i32 noundef %29)
  br label %.loopexit

49:                                               ; preds = %7
  %50 = zext i8 %9 to i32
  %51 = tail call ptr (ptr, ptr, ptr, ptr, ...) @expert_add_info_format(ptr noundef %1, ptr noundef %3, ptr noundef nonnull @ei_gias_unknown_giop_msg, ptr noundef nonnull @.str.827, i32 noundef %50)
  br label %.loopexit

.loopexit:                                        ; preds = %.lr.ph, %10, %27, %30, %47, %49
  ret void
}